target datalayout = "e-m:e-p270:32:32-p271:32:32-p272:64:64-i64:64-i128:128-f80:128-n8:16:32:64-S128"
target triple = "x86_64-pc-linux-gnu"

%struct.darktable_t = type { %struct.dt_codepath_t, i32, i32, ptr, ptr, ptr, ptr, ptr, ptr, ptr, ptr, ptr, ptr, ptr, ptr, ptr, ptr, ptr, ptr, ptr, ptr, ptr, ptr, ptr, ptr, ptr, ptr, ptr, ptr, ptr, [64 x %struct.dt_pthread_mutex_t], %struct.dt_pthread_mutex_t, %struct.dt_pthread_mutex_t, %struct.dt_pthread_mutex_t, %struct.dt_pthread_mutex_t, %struct.dt_pthread_mutex_t, ptr, ptr, ptr, ptr, ptr, ptr, ptr, ptr, ptr, ptr, ptr, ptr, ptr, %struct.dt_lua_state_t, ptr, double, ptr, i32, [47 x i32], i32, i32, ptr, ptr, %struct.dt_sys_resources_t, %struct.dt_backthumb_t, %struct.dt_gimp_t }
%struct.dt_codepath_t = type { i8, [3 x i8] }
%struct.dt_pthread_mutex_t = type { %union.pthread_mutex_t }
%union.pthread_mutex_t = type { %struct.__pthread_mutex_s }
%struct.__pthread_mutex_s = type { i32, i32, i32, i32, i32, i16, i16, %struct.__pthread_internal_list }
%struct.__pthread_internal_list = type { ptr, ptr }
%struct.dt_lua_state_t = type { i32 }
%struct.dt_sys_resources_t = type { i64, i64, ptr, ptr, i32 }
%struct.dt_backthumb_t = type { double, double, i32, i32, i32, i32 }
%struct.dt_gimp_t = type { i32, ptr, ptr, i32, i32 }
%struct.dt_lib_module_t = type { %struct.dt_action_t, ptr, ptr, ptr, ptr, ptr, ptr, ptr, ptr, ptr, ptr, ptr, ptr, ptr, ptr, ptr, ptr, ptr, ptr, ptr, ptr, ptr, ptr, ptr, ptr, ptr, ptr, ptr, ptr, ptr, ptr, [128 x i8], ptr, ptr, i32, ptr, ptr, ptr, i32 }
%struct.dt_action_t = type { i32, ptr, ptr, ptr, ptr, ptr }
%struct.dt_lib_tagging_t = type { [1024 x i8], ptr, ptr, ptr, ptr, ptr, ptr, ptr, ptr, ptr, ptr, ptr, ptr, ptr, ptr, ptr, ptr, ptr, ptr, ptr, ptr, ptr, i32, i32, i32, i32, i32, ptr, ptr, %struct.anon, i32 }
%struct.anon = type { ptr, ptr, ptr, i32, i32, i32, i32, i32 }

@darktable = external global %struct.darktable_t, align 8

; Function Attrs: nounwind uwtable
define internal void @_pop_menu_dictionary_goto_collection_back(ptr noundef %0, ptr noundef %1) #0 {
  %3 = alloca ptr, align 8
  %4 = alloca ptr, align 8
  %5 = alloca ptr, align 8
  store ptr %0, ptr %3, align 8, !tbaa !108
  store ptr %1, ptr %4, align 8, !tbaa !6
  call void @llvm.lifetime.start.p0(i64 8, ptr %5) #11
  %6 = load ptr, ptr %4, align 8, !tbaa !6
  %7 = getelementptr inbounds nuw %struct.dt_lib_module_t, ptr %6, i32 0, i32 30
  %8 = load ptr, ptr %7, align 8, !tbaa !11
  store ptr %8, ptr %5, align 8, !tbaa !19
  %9 = load ptr, ptr %5, align 8, !tbaa !19
  %10 = getelementptr inbounds nuw %struct.dt_lib_tagging_t, ptr %9, i32 0, i32 27
  %11 = load ptr, ptr %10, align 8, !tbaa !65
  %12 = getelementptr inbounds i8, ptr %11, i64 0
  %13 = load i8, ptr %12, align 1, !tbaa !52
  %14 = icmp ne i8 %13, 0
  br i1 %14, label %15, label %27

15:                                               ; preds = %2
  %16 = load ptr, ptr getelementptr inbounds nuw (%struct.darktable_t, ptr @darktable, i32 0, i32 13), align 8, !tbaa !66
  %17 = load ptr, ptr %4, align 8, !tbaa !6
  call void @dt_control_signal_block_by_func(ptr noundef %16, ptr noundef @_collection_updated_callback, ptr noundef %17)
  %18 = load ptr, ptr %5, align 8, !tbaa !19
  %19 = getelementptr inbounds nuw %struct.dt_lib_tagging_t, ptr %18, i32 0, i32 27
  %20 = load ptr, ptr %19, align 8, !tbaa !65
  call void @dt_collection_deserialize(ptr noundef %20, i32 noundef 0)
  %21 = load ptr, ptr getelementptr inbounds nuw (%struct.darktable_t, ptr @darktable, i32 0, i32 13), align 8, !tbaa !66
  %22 = load ptr, ptr %4, align 8, !tbaa !6
  call void @dt_control_signal_unblock_by_func(ptr noundef %21, ptr noundef @_collection_updated_callback, ptr noundef %22)
  %23 = load ptr, ptr %5, align 8, !tbaa !19
  %24 = getelementptr inbounds nuw %struct.dt_lib_tagging_t, ptr %23, i32 0, i32 27
  %25 = load ptr, ptr %24, align 8, !tbaa !65
  %26 = getelementptr inbounds i8, ptr %25, i64 0
  store i8 0, ptr %26, align 1, !tbaa !52
  br label %27

27:                                               ; preds = %15, %2
  call void @llvm.lifetime.end.p0(i64 8, ptr %5) #11
  ret void
}