; Function Attrs: nounwind uwtable
define internal void @_pop_menu_dictionary_goto_collection_back(ptr readnone captures(none) %0, ptr noundef %1) #1 {
  %3 = getelementptr inbounds nuw i8, ptr %1, i64 280
  %4 = load ptr, ptr %3, align 8, !tbaa !6
  %5 = getelementptr inbounds nuw i8, ptr %4, i64 1216
  %6 = load ptr, ptr %5, align 8, !tbaa !56
  %7 = load i8, ptr %6, align 1, !tbaa !40
  %.not = icmp eq i8 %7, 0
  br i1 %.not, label %13, label %8

8:                                                ; preds = %2
  %9 = load ptr, ptr getelementptr inbounds nuw (i8, ptr @darktable, i64 96), align 8, !tbaa !57
  tail call void @dt_control_signal_block_by_func(ptr noundef %9, ptr noundef nonnull @_collection_updated_callback, ptr noundef nonnull %1) #16
  %10 = load ptr, ptr %5, align 8, !tbaa !56
  tail call void @dt_collection_deserialize(ptr noundef %10, i32 noundef 0) #16
  %11 = load ptr, ptr getelementptr inbounds nuw (i8, ptr @darktable, i64 96), align 8, !tbaa !57
  tail call void @dt_control_signal_unblock_by_func(ptr noundef %11, ptr noundef nonnull @_collection_updated_callback, ptr noundef nonnull %1) #16
  %12 = load ptr, ptr %5, align 8, !tbaa !56
  store i8 0, ptr %12, align 1, !tbaa !40
  br label %13

13:                                               ; preds = %8, %2
  ret void
}